target datalayout = "e-m:e-p270:32:32-p271:32:32-p272:64:64-i64:64-i128:128-f80:128-n8:16:32:64-S128"
target triple = "x86_64-pc-linux-gnu"

%struct.rb_data_type_struct = type { ptr, %struct.anon, ptr, ptr, i64 }
%struct.anon = type { ptr, ptr, ptr, ptr, [1 x ptr] }

@ossl_bn_type = internal constant %struct.rb_data_type_struct { ptr @.str.62, %struct.anon { ptr null, ptr @ossl_bn_free, ptr null, ptr null, [1 x ptr] zeroinitializer }, ptr null, ptr null, i64 289 }, align 8
@rb_eRuntimeError = external global i64, align 8
@.str = private unnamed_addr constant [23 x i8] c"BN wasn't initialized!\00", align 1

; Function Attrs: inlinehint nounwind sspstrong willreturn memory(none) uwtable
define internal i64 @RB_INT2FIX(i64 noundef %0) #4 {
  %2 = alloca i64, align 8
  %3 = alloca i64, align 8
  %4 = alloca i64, align 8
  %5 = alloca i64, align 8
  %6 = alloca i64, align 8
  %7 = alloca i64, align 8
  store i64 %0, ptr %2, align 8, !tbaa !11
  call void @llvm.lifetime.start.p0(i64 8, ptr %3) #20
  %8 = load i64, ptr %2, align 8, !tbaa !11
  store i64 %8, ptr %3, align 8, !tbaa !11
  call void @llvm.lifetime.start.p0(i64 8, ptr %4) #20
  %9 = load i64, ptr %3, align 8, !tbaa !11
  %10 = shl i64 %9, 1
  %11 = add i64 %10, 1
  store i64 %11, ptr %4, align 8, !tbaa !11
  call void @llvm.lifetime.start.p0(i64 8, ptr %5) #20
  %12 = load i64, ptr %4, align 8, !tbaa !11
  store i64 %12, ptr %5, align 8, !tbaa !11
  call void @llvm.lifetime.start.p0(i64 8, ptr %6) #20
  %13 = load i64, ptr %5, align 8, !tbaa !11
  store i64 %13, ptr %6, align 8, !tbaa !11
  call void @llvm.lifetime.start.p0(i64 8, ptr %7) #20
  %14 = load i64, ptr %6, align 8, !tbaa !11
  store i64 %14, ptr %7, align 8, !tbaa !11
  %15 = load i64, ptr %7, align 8, !tbaa !11
  call void @llvm.lifetime.end.p0(i64 8, ptr %7) #20
  call void @llvm.lifetime.end.p0(i64 8, ptr %6) #20
  call void @llvm.lifetime.end.p0(i64 8, ptr %5) #20
  call void @llvm.lifetime.end.p0(i64 8, ptr %4) #20
  call void @llvm.lifetime.end.p0(i64 8, ptr %3) #20
  ret i64 %15
}

; Function Attrs: inlinehint nounwind sspstrong uwtable
define internal i64 @rb_int2num_inline(i32 noundef %0) #5 {
  %2 = alloca i64, align 8
  %3 = alloca i32, align 4
  store i32 %0, ptr %3, align 4, !tbaa !23
  %4 = load i32, ptr %3, align 4, !tbaa !23
  %5 = sext i32 %4 to i64
  %6 = icmp slt i64 %5, 4611686018427387904
  br i1 %6, label %7, label %15

7:                                                ; preds = %1
  %8 = load i32, ptr %3, align 4, !tbaa !23
  %9 = sext i32 %8 to i64
  %10 = icmp sge i64 %9, -4611686018427387904
  br i1 %10, label %11, label %15

11:                                               ; preds = %7
  %12 = load i32, ptr %3, align 4, !tbaa !23
  %13 = sext i32 %12 to i64
  %14 = call i64 @RB_INT2FIX(i64 noundef %13) #22
  store i64 %14, ptr %2, align 8
  br label %19

15:                                               ; preds = %7, %1
  %16 = load i32, ptr %3, align 4, !tbaa !23
  %17 = sext i32 %16 to i64
  %18 = call i64 @rb_int2big(i64 noundef %17)
  store i64 %18, ptr %2, align 8
  br label %19

19:                                               ; preds = %15, %11
  %20 = load i64, ptr %2, align 8
  ret i64 %20
}

; Function Attrs: nounwind sspstrong uwtable
define internal i64 @ossl_bn_cmp(i64 noundef %0, i64 noundef %1) #0 {
  %3 = alloca i64, align 8
  %4 = alloca i64, align 8
  %5 = alloca ptr, align 8
  %6 = alloca ptr, align 8
  store i64 %0, ptr %3, align 8, !tbaa !11
  store i64 %1, ptr %4, align 8, !tbaa !11
  call void @llvm.lifetime.start.p0(i64 8, ptr %5) #20
  call void @llvm.lifetime.start.p0(i64 8, ptr %6) #20
  %7 = call ptr @ossl_bn_value_ptr(ptr noundef %4)
  store ptr %7, ptr %6, align 8, !tbaa !6
  br label %8

8:                                                ; preds = %2
  %9 = load i64, ptr %3, align 8, !tbaa !11
  %10 = call ptr @rb_check_typeddata(i64 noundef %9, ptr noundef @ossl_bn_type)
  store ptr %10, ptr %5, align 8, !tbaa !6
  %11 = load ptr, ptr %5, align 8, !tbaa !6
  %12 = icmp ne ptr %11, null
  br i1 %12, label %15, label %13

13:                                               ; preds = %8
  %14 = load i64, ptr @rb_eRuntimeError, align 8, !tbaa !11
  call void (i64, ptr, ...) @ossl_raise(i64 noundef %14, ptr noundef @.str) #21
  unreachable

15:                                               ; preds = %8
  br label %16

16:                                               ; preds = %15
  br label %17

17:                                               ; preds = %16
  %18 = load ptr, ptr %5, align 8, !tbaa !6
  %19 = load ptr, ptr %6, align 8, !tbaa !6
  %20 = call i32 @BN_cmp(ptr noundef %18, ptr noundef %19)
  %21 = call i64 @rb_int2num_inline(i32 noundef %20)
  call void @llvm.lifetime.end.p0(i64 8, ptr %6) #20
  call void @llvm.lifetime.end.p0(i64 8, ptr %5) #20
  ret i64 %21
}